; ModuleID = 'source-C-CXX/18/773.c'
source_filename = "source-C-CXX/18/773.c"
target datalayout = "e-m:e-p270:32:32-p271:32:32-p272:64:64-i64:64-f80:128-n8:16:32:64-S128"
target triple = "x86_64-pc-linux-gnu"

@.str = private unnamed_addr constant [5 x i8] c"%s%s\00", align 1
@.str.2 = private unnamed_addr constant [3 x i8] c"%s\00", align 1

; Function Attrs: nounwind sspstrong uwtable
define dso_local i32 @main() local_unnamed_addr #0 {
  %1 = alloca [200 x i8], align 16
  %2 = alloca [200 x i8], align 16
  %3 = alloca [200 x i8], align 16
  %4 = alloca [200 x i32], align 16
  %5 = getelementptr inbounds [200 x i8], [200 x i8]* %1, i64 0, i64 0
  call void @llvm.lifetime.start.p0i8(i64 200, i8* nonnull %5) #7
  %6 = getelementptr inbounds [200 x i8], [200 x i8]* %2, i64 0, i64 0
  call void @llvm.lifetime.start.p0i8(i64 200, i8* nonnull %6) #7
  %7 = getelementptr inbounds [200 x i8], [200 x i8]* %3, i64 0, i64 0
  call void @llvm.lifetime.start.p0i8(i64 200, i8* nonnull %7) #7
  %8 = bitcast [200 x i32]* %4 to i8*
  call void @llvm.lifetime.start.p0i8(i64 800, i8* nonnull %8) #7
  call void @llvm.memset.p0i8.i64(i8* noundef nonnull align 16 dereferenceable(800) %8, i8 0, i64 800, i1 false)
  %9 = call i32 (i8*, ...) bitcast (i32 (...)* @gets to i32 (i8*, ...)*)(i8* nonnull %5) #7
  %10 = call i32 (i8*, ...) @__isoc99_scanf(i8* getelementptr inbounds ([5 x i8], [5 x i8]* @.str, i64 0, i64 0), i8* nonnull %6, i8* nonnull %7)
  %11 = call i64 @strlen(i8* noundef nonnull %5) #8
  %12 = icmp eq i64 %11, 0
  br i1 %12, label %13, label %16

13:                                               ; preds = %47, %0
  %14 = load i8, i8* %5, align 16
  %15 = icmp eq i8 %14, 0
  br i1 %15, label %73, label %50

16:                                               ; preds = %0, %47
  %17 = phi i64 [ %48, %47 ], [ 0, %0 ]
  %18 = icmp eq i64 %17, 0
  br i1 %18, label %24, label %19

19:                                               ; preds = %16
  %20 = add nsw i64 %17, -1
  %21 = getelementptr inbounds [200 x i8], [200 x i8]* %1, i64 0, i64 %20
  %22 = load i8, i8* %21, align 1, !tbaa !5
  %23 = icmp eq i8 %22, 32
  br i1 %23, label %24, label %47

24:                                               ; preds = %19, %16
  %25 = call i64 @strlen(i8* noundef nonnull %6) #8
  %26 = add i64 %25, -1
  %27 = getelementptr inbounds [200 x i32], [200 x i32]* %4, i64 0, i64 %17
  %28 = icmp eq i64 %25, 0
  br i1 %28, label %47, label %29

29:                                               ; preds = %24, %44
  %30 = phi i64 [ %45, %44 ], [ 0, %24 ]
  %31 = add nuw nsw i64 %30, %17
  %32 = getelementptr inbounds [200 x i8], [200 x i8]* %1, i64 0, i64 %31
  %33 = load i8, i8* %32, align 1, !tbaa !5
  %34 = getelementptr inbounds [200 x i8], [200 x i8]* %2, i64 0, i64 %30
  %35 = load i8, i8* %34, align 1, !tbaa !5
  %36 = icmp eq i8 %33, %35
  br i1 %36, label %37, label %47

37:                                               ; preds = %29
  %38 = icmp eq i64 %26, %30
  br i1 %38, label %39, label %44

39:                                               ; preds = %37
  %40 = add nuw nsw i64 %31, 1
  %41 = getelementptr inbounds [200 x i8], [200 x i8]* %1, i64 0, i64 %40
  %42 = load i8, i8* %41, align 1, !tbaa !5
  switch i8 %42, label %44 [
    i8 32, label %43
    i8 0, label %43
  ]

43:                                               ; preds = %39, %39
  store i32 1, i32* %27, align 4, !tbaa !8
  br label %44

44:                                               ; preds = %39, %43, %37
  %45 = add nuw i64 %30, 1
  %46 = icmp eq i64 %45, %25
  br i1 %46, label %47, label %29, !llvm.loop !10

47:                                               ; preds = %44, %29, %24, %19
  %48 = add nuw nsw i64 %17, 1
  %49 = icmp eq i64 %48, %11
  br i1 %49, label %13, label %16, !llvm.loop !12

50:                                               ; preds = %13, %67
  %51 = phi i64 [ %70, %67 ], [ 0, %13 ]
  %52 = phi i32 [ %69, %67 ], [ 0, %13 ]
  %53 = getelementptr inbounds [200 x i32], [200 x i32]* %4, i64 0, i64 %51
  %54 = load i32, i32* %53, align 4, !tbaa !8
  %55 = icmp eq i32 %54, 0
  br i1 %55, label %56, label %61

56:                                               ; preds = %50
  %57 = getelementptr inbounds [200 x i8], [200 x i8]* %1, i64 0, i64 %51
  %58 = load i8, i8* %57, align 1, !tbaa !5
  %59 = sext i8 %58 to i32
  %60 = call i32 @putchar(i32 %59)
  br label %67

61:                                               ; preds = %50
  %62 = call i32 (i8*, ...) @printf(i8* nonnull dereferenceable(1) getelementptr inbounds ([3 x i8], [3 x i8]* @.str.2, i64 0, i64 0), i8* nonnull %7)
  %63 = call i64 @strlen(i8* noundef nonnull %6) #8
  %64 = trunc i64 %63 to i32
  %65 = add i32 %52, -1
  %66 = add i32 %65, %64
  br label %67

67:                                               ; preds = %56, %61
  %68 = phi i32 [ %52, %56 ], [ %66, %61 ]
  %69 = add nsw i32 %68, 1
  %70 = sext i32 %69 to i64
  %71 = call i64 @strlen(i8* noundef nonnull %5) #8
  %72 = icmp ugt i64 %71, %70
  br i1 %72, label %50, label %73, !llvm.loop !13

73:                                               ; preds = %67, %13
  call void @llvm.lifetime.end.p0i8(i64 800, i8* nonnull %8) #7
  call void @llvm.lifetime.end.p0i8(i64 200, i8* nonnull %7) #7
  call void @llvm.lifetime.end.p0i8(i64 200, i8* nonnull %6) #7
  call void @llvm.lifetime.end.p0i8(i64 200, i8* nonnull %5) #7
  ret i32 0
}

; Function Attrs: argmemonly mustprogress nofree nosync nounwind willreturn
declare void @llvm.lifetime.start.p0i8(i64 immarg, i8* nocapture) #1

; Function Attrs: argmemonly mustprogress nofree nounwind willreturn writeonly
declare void @llvm.memset.p0i8.i64(i8* nocapture writeonly, i8, i64, i1 immarg) #2

declare i32 @gets(...) local_unnamed_addr #3

; Function Attrs: nofree nounwind
declare noundef i32 @__isoc99_scanf(i8* nocapture noundef readonly, ...) local_unnamed_addr #4

; Function Attrs: argmemonly mustprogress nofree nounwind readonly willreturn
declare i64 @strlen(i8* nocapture) local_unnamed_addr #5

; Function Attrs: nofree nounwind
declare noundef i32 @printf(i8* nocapture noundef readonly, ...) local_unnamed_addr #4

; Function Attrs: argmemonly mustprogress nofree nosync nounwind willreturn
declare void @llvm.lifetime.end.p0i8(i64 immarg, i8* nocapture) #1

; Function Attrs: nofree nounwind
declare noundef i32 @putchar(i32 noundef) local_unnamed_addr #6


!llvm.module.flags = !{!0, !1, !2, !3}
!llvm.ident = !{!4}

!0 = !{i32 1, !"wchar_size", i32 4}
!1 = !{i32 7, !"PIC Level", i32 2}
!2 = !{i32 7, !"PIE Level", i32 2}
!3 = !{i32 7, !"uwtable", i32 1}
!4 = !{!"clang version 13.0.0"}
!5 = !{!6, !6, i64 0}
!6 = !{!"omnipotent char", !7, i64 0}
!7 = !{!"Simple C/C++ TBAA"}
!8 = !{!9, !9, i64 0}
!9 = !{!"int", !6, i64 0}
!10 = distinct !{!10, !11}
!11 = !{!"llvm.loop.mustprogress"}
!12 = distinct !{!12, !11}
!13 = distinct !{!13, !11}
